target datalayout = "e-m:e-p270:32:32-p271:32:32-p272:64:64-i64:64-i128:128-f80:128-n8:16:32:64-S128"
target triple = "x86_64-pc-linux-gnu"

@WAYLAND_wl_proxy_get_id = external global ptr, align 8
@.str.10 = private unnamed_addr constant [98 x i8] c". In wl_data_offer_listener . data_offer_handle_actions on data_offer 0x%08x for DND Actions '%d'\00", align 1

; Function Attrs: nounwind uwtable
define internal void @data_offer_handle_actions(ptr noundef %0, ptr noundef %1, i32 noundef %2) #0 {
  %4 = alloca ptr, align 8
  %5 = alloca ptr, align 8
  %6 = alloca i32, align 4
  store ptr %0, ptr %4, align 8
  store ptr %1, ptr %5, align 8
  store i32 %2, ptr %6, align 4
  %7 = load ptr, ptr %5, align 8
  %8 = icmp ne ptr %7, null
  br i1 %8, label %9, label %13

9:                                                ; preds = %3
  %10 = load ptr, ptr @WAYLAND_wl_proxy_get_id, align 8
  %11 = load ptr, ptr %5, align 8
  %12 = call i32 %10(ptr noundef %11)
  br label %14

13:                                               ; preds = %3
  br label %14

14:                                               ; preds = %13, %9
  %15 = phi i32 [ %12, %9 ], [ -1, %13 ]
  %16 = load i32, ptr %6, align 4
  call void (i32, ptr, ...) @SDL_LogTrace_REAL(i32 noundef 7, ptr noundef @.str.10, i32 noundef %15, i32 noundef %16)
  ret void
}